; Function Attrs: nounwind uwtable
define void @duckdb_je_san_unguard_pages(ptr noundef %0, ptr noundef readonly captures(none) %1, ptr noundef %2, ptr noundef %3, i1 noundef zeroext %4, i1 noundef zeroext %5) local_unnamed_addr #0 {
  tail call void @duckdb_je_emap_deregister_boundary(ptr noundef %0, ptr noundef %3, ptr noundef %2) #4
  %7 = getelementptr i8, ptr %2, i64 16
  %.val.i = load i64, ptr %7, align 8, !tbaa !3
  %8 = and i64 %.val.i, -4096
  %9 = getelementptr i8, ptr %2, i64 8
  %.val23.i = load ptr, ptr %9, align 8, !tbaa !6
  %10 = ptrtoint ptr %.val23.i to i64
  %11 = and i64 %10, 4095
  %12 = sub nsw i64 0, %11
  %13 = getelementptr inbounds i8, ptr %.val23.i, i64 %12
  %14 = getelementptr inbounds i8, ptr %13, i64 -4096
  %15 = getelementptr inbounds nuw i8, ptr %1, i64 8
  %16 = load atomic i64, ptr %15 acquire, align 8
  %.not.i = icmp eq i64 %16, ptrtoint (ptr @duckdb_je_ehooks_default_extent_hooks to i64)
  br i1 %.not.i, label %17, label %san_unguard_pages_impl.exit

17:                                               ; preds = %6
  %.027.i = select i1 %4, ptr %14, ptr null
  %18 = getelementptr inbounds nuw i8, ptr %13, i64 %8
  %storemerge.i.i = select i1 %5, ptr %18, ptr null
  tail call void @duckdb_je_ehooks_default_unguard_impl(ptr noundef %.027.i, ptr noundef %storemerge.i.i) #4
  br label %san_unguard_pages_impl.exit

san_unguard_pages_impl.exit:                      ; preds = %6, %17
  %.0.i = select i1 %4, ptr %14, ptr %13
  %brmerge.demorgan.i = and i1 %4, %5
  %.v.i = select i1 %brmerge.demorgan.i, i64 8192, i64 4096
  %19 = add i64 %8, %.v.i
  %20 = load i64, ptr %7, align 8, !tbaa !3
  %21 = and i64 %20, 4095
  %22 = or disjoint i64 %21, %19
  store i64 %22, ptr %7, align 8, !tbaa !3
  store ptr %.0.i, ptr %9, align 8, !tbaa !6
  %23 = load i64, ptr %2, align 8, !tbaa !11
  %24 = and i64 %23, -65537
  store i64 %24, ptr %2, align 8, !tbaa !11
  %25 = tail call zeroext i1 @duckdb_je_emap_register_boundary(ptr noundef %0, ptr noundef %3, ptr noundef nonnull %2, i32 noundef 232, i1 noundef zeroext false) #4
  ret void
}